target datalayout = "e-m:e-p270:32:32-p271:32:32-p272:64:64-i64:64-i128:128-f80:128-n8:16:32:64-S128"
target triple = "x86_64-pc-linux-gnu"

%struct.v3_ext_method = type { i32, i32, ptr, ptr, ptr, ptr, ptr, ptr, ptr, ptr, ptr, ptr, ptr, ptr }

@ext_list = internal global ptr null, align 8

; Function Attrs: inlinehint nounwind uwtable
define internal ptr @ossl_check_const_X509V3_EXT_METHOD_sk_type(ptr noundef %0) #2 {
  %2 = alloca ptr, align 8
  store ptr %0, ptr %2, align 8, !tbaa !8
  %3 = load ptr, ptr %2, align 8, !tbaa !8
  ret ptr %3
}

; Function Attrs: inlinehint nounwind uwtable
define internal ptr @ossl_check_X509V3_EXT_METHOD_type(ptr noundef %0) #2 {
  %2 = alloca ptr, align 8
  store ptr %0, ptr %2, align 8, !tbaa !3
  %3 = load ptr, ptr %2, align 8, !tbaa !3
  ret ptr %3
}

; Function Attrs: inlinehint nounwind uwtable
define internal ptr @ossl_check_X509V3_EXT_METHOD_sk_type(ptr noundef %0) #2 {
  %2 = alloca ptr, align 8
  store ptr %0, ptr %2, align 8, !tbaa !8
  %3 = load ptr, ptr %2, align 8, !tbaa !8
  ret ptr %3
}

; Function Attrs: nounwind uwtable
define internal ptr @OBJ_bsearch_ext(ptr noundef %0, ptr noundef %1, i32 noundef %2) #0 {
  %4 = alloca ptr, align 8
  %5 = alloca ptr, align 8
  %6 = alloca i32, align 4
  store ptr %0, ptr %4, align 8, !tbaa !11
  store ptr %1, ptr %5, align 8, !tbaa !11
  store i32 %2, ptr %6, align 4, !tbaa !16
  %7 = load ptr, ptr %4, align 8, !tbaa !11
  %8 = load ptr, ptr %5, align 8, !tbaa !11
  %9 = load i32, ptr %6, align 4, !tbaa !16
  %10 = call ptr @OBJ_bsearch_(ptr noundef %7, ptr noundef %8, i32 noundef %9, i32 noundef 8, ptr noundef @ext_cmp_BSEARCH_CMP_FN)
  ret ptr %10
}

; Function Attrs: nounwind uwtable
define ptr @X509V3_EXT_get_nid(i32 noundef %0) #0 {
  %2 = alloca ptr, align 8
  %3 = alloca i32, align 4
  %4 = alloca %struct.v3_ext_method, align 8
  %5 = alloca ptr, align 8
  %6 = alloca ptr, align 8
  %7 = alloca i32, align 4
  %8 = alloca i32, align 4
  store i32 %0, ptr %3, align 4, !tbaa !16
  call void @llvm.lifetime.start.p0(i64 104, ptr %4) #5
  call void @llvm.lifetime.start.p0(i64 8, ptr %5) #5
  store ptr %4, ptr %5, align 8, !tbaa !3
  call void @llvm.lifetime.start.p0(i64 8, ptr %6) #5
  call void @llvm.lifetime.start.p0(i64 4, ptr %7) #5
  %9 = load i32, ptr %3, align 4, !tbaa !16
  %10 = icmp slt i32 %9, 0
  br i1 %10, label %11, label %12

11:                                               ; preds = %1
  store ptr null, ptr %2, align 8
  store i32 1, ptr %8, align 4
  br label %36

12:                                               ; preds = %1
  %13 = load i32, ptr %3, align 4, !tbaa !16
  %14 = getelementptr inbounds nuw %struct.v3_ext_method, ptr %4, i32 0, i32 0
  store i32 %13, ptr %14, align 8, !tbaa !13
  %15 = call ptr @OBJ_bsearch_ext(ptr noundef %5, ptr noundef @standard_exts, i32 noundef 73)
  store ptr %15, ptr %6, align 8, !tbaa !11
  %16 = load ptr, ptr %6, align 8, !tbaa !11
  %17 = icmp ne ptr %16, null
  br i1 %17, label %18, label %21

18:                                               ; preds = %12
  %19 = load ptr, ptr %6, align 8, !tbaa !11
  %20 = load ptr, ptr %19, align 8, !tbaa !3
  store ptr %20, ptr %2, align 8
  store i32 1, ptr %8, align 4
  br label %36

21:                                               ; preds = %12
  %22 = load ptr, ptr @ext_list, align 8, !tbaa !8
  %23 = icmp ne ptr %22, null
  br i1 %23, label %25, label %24

24:                                               ; preds = %21
  store ptr null, ptr %2, align 8
  store i32 1, ptr %8, align 4
  br label %36

25:                                               ; preds = %21
  %26 = load ptr, ptr @ext_list, align 8, !tbaa !8
  %27 = call ptr @ossl_check_X509V3_EXT_METHOD_sk_type(ptr noundef %26)
  call void @OPENSSL_sk_sort(ptr noundef %27)
  %28 = load ptr, ptr @ext_list, align 8, !tbaa !8
  %29 = call ptr @ossl_check_X509V3_EXT_METHOD_sk_type(ptr noundef %28)
  %30 = call ptr @ossl_check_X509V3_EXT_METHOD_type(ptr noundef %4)
  %31 = call i32 @OPENSSL_sk_find(ptr noundef %29, ptr noundef %30)
  store i32 %31, ptr %7, align 4, !tbaa !16
  %32 = load ptr, ptr @ext_list, align 8, !tbaa !8
  %33 = call ptr @ossl_check_const_X509V3_EXT_METHOD_sk_type(ptr noundef %32)
  %34 = load i32, ptr %7, align 4, !tbaa !16
  %35 = call ptr @OPENSSL_sk_value(ptr noundef %33, i32 noundef %34)
  store ptr %35, ptr %2, align 8
  store i32 1, ptr %8, align 4
  br label %36

36:                                               ; preds = %25, %24, %18, %11
  call void @llvm.lifetime.end.p0(i64 4, ptr %7) #5
  call void @llvm.lifetime.end.p0(i64 8, ptr %6) #5
  call void @llvm.lifetime.end.p0(i64 8, ptr %5) #5
  call void @llvm.lifetime.end.p0(i64 104, ptr %4) #5
  %37 = load ptr, ptr %2, align 8
  ret ptr %37
}