; Function Attrs: nounwind uwtable
define ptr @X509V3_EXT_get_nid(i32 noundef %0) local_unnamed_addr #0 {
  %2 = alloca %struct.v3_ext_method, align 8
  %3 = alloca ptr, align 8
  call void @llvm.lifetime.start.p0(i64 104, ptr nonnull %2) #7
  call void @llvm.lifetime.start.p0(i64 8, ptr nonnull %3) #7
  store ptr %2, ptr %3, align 8, !tbaa !8
  %4 = icmp slt i32 %0, 0
  br i1 %4, label %16, label %5

5:                                                ; preds = %1
  store i32 %0, ptr %2, align 8, !tbaa !10
  %6 = call ptr @OBJ_bsearch_(ptr noundef nonnull %3, ptr noundef nonnull @standard_exts, i32 noundef 73, i32 noundef 8, ptr noundef nonnull @ext_cmp_BSEARCH_CMP_FN) #7
  %.not = icmp eq ptr %6, null
  br i1 %.not, label %9, label %7

7:                                                ; preds = %5
  %8 = load ptr, ptr %6, align 8, !tbaa !8
  br label %16

9:                                                ; preds = %5
  %10 = load ptr, ptr @ext_list, align 8, !tbaa !3
  %.not8 = icmp eq ptr %10, null
  br i1 %.not8, label %16, label %11

11:                                               ; preds = %9
  call void @OPENSSL_sk_sort(ptr noundef nonnull %10) #7
  %12 = load ptr, ptr @ext_list, align 8, !tbaa !3
  %13 = call i32 @OPENSSL_sk_find(ptr noundef %12, ptr noundef nonnull %2) #7
  %14 = load ptr, ptr @ext_list, align 8, !tbaa !3
  %15 = call ptr @OPENSSL_sk_value(ptr noundef %14, i32 noundef %13) #7
  br label %16

16:                                               ; preds = %9, %1, %11, %7
  %.0 = phi ptr [ %8, %7 ], [ %15, %11 ], [ null, %1 ], [ null, %9 ]
  call void @llvm.lifetime.end.p0(i64 8, ptr nonnull %3) #7
  call void @llvm.lifetime.end.p0(i64 104, ptr nonnull %2) #7
  ret ptr %.0
}